; Function Attrs: mustprogress nofree norecurse nosync nounwind willreturn memory(argmem: readwrite) uwtable
define void @_ZN3g2o7cholmod7Cholmod10sparseViewEv(ptr dead_on_unwind noalias writable writeonly sret(%"struct.g2o::cholmod::Cholmod::SparseView") align 8 captures(none) initializes((0, 56)) %0, ptr noundef nonnull readonly align 8 captures(none) dereferenceable(8) %1) local_unnamed_addr #5 align 2 {
  %3 = load ptr, ptr %1, align 8, !tbaa !29
  %4 = getelementptr inbounds nuw i8, ptr %3, i64 2664
  %5 = getelementptr inbounds nuw i8, ptr %3, i64 2672
  %6 = getelementptr inbounds nuw i8, ptr %3, i64 2680
  %7 = getelementptr inbounds nuw i8, ptr %3, i64 2688
  %8 = getelementptr inbounds nuw i8, ptr %3, i64 2696
  %9 = getelementptr inbounds nuw i8, ptr %3, i64 2712
  %10 = getelementptr inbounds nuw i8, ptr %3, i64 2752
  store ptr %4, ptr %0, align 8, !tbaa !48
  %11 = getelementptr inbounds nuw i8, ptr %0, i64 8
  store ptr %5, ptr %11, align 8, !tbaa !48
  %12 = getelementptr inbounds nuw i8, ptr %0, i64 16
  store ptr %6, ptr %12, align 8, !tbaa !48
  %13 = getelementptr inbounds nuw i8, ptr %0, i64 24
  store ptr %7, ptr %13, align 8, !tbaa !49
  %14 = getelementptr inbounds nuw i8, ptr %0, i64 32
  store ptr %8, ptr %14, align 8, !tbaa !49
  %15 = getelementptr inbounds nuw i8, ptr %0, i64 40
  store ptr %9, ptr %15, align 8, !tbaa !50
  %16 = getelementptr inbounds nuw i8, ptr %0, i64 48
  store ptr %10, ptr %16, align 8, !tbaa !48
  ret void
}